target datalayout = "e-m:e-p270:32:32-p271:32:32-p272:64:64-i64:64-i128:128-f80:128-n8:16:32:64-S128"
target triple = "x86_64-pc-linux-gnu"

%struct.PSH_Hint_TableRec_ = type { i32, i32, ptr, ptr, ptr, i32, ptr, ptr, ptr, ptr }
%struct.PSH_PointRec_ = type { ptr, ptr, ptr, i32, i32, i32, i32, ptr, i64, i64, i64 }
%struct.PSH_HintRec_ = type { i32, i32, i64, i64, i32, ptr, i32 }

; Function Attrs: nounwind uwtable
define internal void @psh_hint_table_find_strong_points(ptr noundef %0, ptr noundef %1, i32 noundef %2, i32 noundef %3, i32 noundef %4) #0 {
  %6 = alloca ptr, align 8
  %7 = alloca ptr, align 8
  %8 = alloca i32, align 4
  %9 = alloca i32, align 4
  %10 = alloca i32, align 4
  %11 = alloca ptr, align 8
  %12 = alloca i32, align 4
  %13 = alloca i32, align 4
  %14 = alloca i64, align 8
  %15 = alloca i32, align 4
  %16 = alloca ptr, align 8
  %17 = alloca i64, align 8
  %18 = alloca i32, align 4
  %19 = alloca ptr, align 8
  %20 = alloca i64, align 8
  %21 = alloca i32, align 4
  %22 = alloca i32, align 4
  %23 = alloca i32, align 4
  %24 = alloca ptr, align 8
  %25 = alloca i64, align 8
  %26 = alloca ptr, align 8
  %27 = alloca i64, align 8
  %28 = alloca ptr, align 8
  store ptr %0, ptr %6, align 8
  store ptr %1, ptr %7, align 8
  store i32 %2, ptr %8, align 4
  store i32 %3, ptr %9, align 4
  store i32 %4, ptr %10, align 4
  %29 = load ptr, ptr %6, align 8
  %30 = getelementptr inbounds %struct.PSH_Hint_TableRec_, ptr %29, i32 0, i32 3
  %31 = load ptr, ptr %30, align 8
  store ptr %31, ptr %11, align 8
  %32 = load ptr, ptr %6, align 8
  %33 = getelementptr inbounds %struct.PSH_Hint_TableRec_, ptr %32, i32 0, i32 1
  %34 = load i32, ptr %33, align 4
  store i32 %34, ptr %12, align 4
  br label %35

35:                                               ; preds = %323, %5
  %36 = load i32, ptr %8, align 4
  %37 = icmp ugt i32 %36, 0
  br i1 %37, label %38, label %328

38:                                               ; preds = %35
  %39 = load ptr, ptr %7, align 8
  %40 = getelementptr inbounds %struct.PSH_PointRec_, ptr %39, i32 0, i32 8
  %41 = load i64, ptr %40, align 8
  store i64 %41, ptr %14, align 8
  %42 = load ptr, ptr %7, align 8
  %43 = getelementptr inbounds %struct.PSH_PointRec_, ptr %42, i32 0, i32 4
  %44 = load i32, ptr %43, align 4
  %45 = and i32 %44, 16
  %46 = icmp ne i32 %45, 0
  br i1 %46, label %47, label %48

47:                                               ; preds = %38
  br label %323

48:                                               ; preds = %38
  %49 = load ptr, ptr %7, align 8
  %50 = getelementptr inbounds %struct.PSH_PointRec_, ptr %49, i32 0, i32 5
  %51 = load i32, ptr %50, align 8
  %52 = load ptr, ptr %7, align 8
  %53 = getelementptr inbounds %struct.PSH_PointRec_, ptr %52, i32 0, i32 6
  %54 = load i32, ptr %53, align 4
  %55 = or i32 %51, %54
  %56 = load i32, ptr %10, align 4
  %57 = and i32 %55, %56
  store i32 %57, ptr %13, align 4
  %58 = load i32, ptr %13, align 4
  %59 = and i32 %58, 10
  %60 = icmp ne i32 %59, 0
  br i1 %60, label %61, label %105

61:                                               ; preds = %48
  store i32 0, ptr %15, align 4
  br label %62

62:                                               ; preds = %101, %61
  %63 = load i32, ptr %15, align 4
  %64 = load i32, ptr %12, align 4
  %65 = icmp ult i32 %63, %64
  br i1 %65, label %66, label %104

66:                                               ; preds = %62
  %67 = load ptr, ptr %11, align 8
  %68 = load i32, ptr %15, align 4
  %69 = zext i32 %68 to i64
  %70 = getelementptr inbounds ptr, ptr %67, i64 %69
  %71 = load ptr, ptr %70, align 8
  store ptr %71, ptr %16, align 8
  %72 = load i64, ptr %14, align 8
  %73 = load ptr, ptr %16, align 8
  %74 = getelementptr inbounds %struct.PSH_HintRec_, ptr %73, i32 0, i32 0
  %75 = load i32, ptr %74, align 8
  %76 = sext i32 %75 to i64
  %77 = sub nsw i64 %72, %76
  store i64 %77, ptr %17, align 8
  %78 = load i64, ptr %17, align 8
  %79 = load i32, ptr %9, align 4
  %80 = sext i32 %79 to i64
  %81 = icmp slt i64 %78, %80
  br i1 %81, label %82, label %100

82:                                               ; preds = %66
  %83 = load i64, ptr %17, align 8
  %84 = sub nsw i64 0, %83
  %85 = load i32, ptr %9, align 4
  %86 = sext i32 %85 to i64
  %87 = icmp slt i64 %84, %86
  br i1 %87, label %88, label %100

88:                                               ; preds = %82
  %89 = load ptr, ptr %7, align 8
  %90 = getelementptr inbounds %struct.PSH_PointRec_, ptr %89, i32 0, i32 4
  %91 = load i32, ptr %90, align 4
  %92 = or i32 %91, 16
  store i32 %92, ptr %90, align 4
  %93 = load ptr, ptr %7, align 8
  %94 = getelementptr inbounds %struct.PSH_PointRec_, ptr %93, i32 0, i32 4
  %95 = load i32, ptr %94, align 4
  %96 = or i32 %95, 512
  store i32 %96, ptr %94, align 4
  %97 = load ptr, ptr %16, align 8
  %98 = load ptr, ptr %7, align 8
  %99 = getelementptr inbounds %struct.PSH_PointRec_, ptr %98, i32 0, i32 7
  store ptr %97, ptr %99, align 8
  br label %104

100:                                              ; preds = %82, %66
  br label %101

101:                                              ; preds = %100
  %102 = load i32, ptr %15, align 4
  %103 = add i32 %102, 1
  store i32 %103, ptr %15, align 4
  br label %62, !llvm.loop !54

104:                                              ; preds = %88, %62
  br label %322

105:                                              ; preds = %48
  %106 = load i32, ptr %13, align 4
  %107 = and i32 %106, 5
  %108 = icmp ne i32 %107, 0
  br i1 %108, label %109, label %158

109:                                              ; preds = %105
  store i32 0, ptr %18, align 4
  br label %110

110:                                              ; preds = %154, %109
  %111 = load i32, ptr %18, align 4
  %112 = load i32, ptr %12, align 4
  %113 = icmp ult i32 %111, %112
  br i1 %113, label %114, label %157

114:                                              ; preds = %110
  %115 = load ptr, ptr %11, align 8
  %116 = load i32, ptr %18, align 4
  %117 = zext i32 %116 to i64
  %118 = getelementptr inbounds ptr, ptr %115, i64 %117
  %119 = load ptr, ptr %118, align 8
  store ptr %119, ptr %19, align 8
  %120 = load i64, ptr %14, align 8
  %121 = load ptr, ptr %19, align 8
  %122 = getelementptr inbounds %struct.PSH_HintRec_, ptr %121, i32 0, i32 0
  %123 = load i32, ptr %122, align 8
  %124 = sext i32 %123 to i64
  %125 = sub nsw i64 %120, %124
  %126 = load ptr, ptr %19, align 8
  %127 = getelementptr inbounds %struct.PSH_HintRec_, ptr %126, i32 0, i32 1
  %128 = load i32, ptr %127, align 4
  %129 = sext i32 %128 to i64
  %130 = sub nsw i64 %125, %129
  store i64 %130, ptr %20, align 8
  %131 = load i64, ptr %20, align 8
  %132 = load i32, ptr %9, align 4
  %133 = sext i32 %132 to i64
  %134 = icmp slt i64 %131, %133
  br i1 %134, label %135, label %153

135:                                              ; preds = %114
  %136 = load i64, ptr %20, align 8
  %137 = sub nsw i64 0, %136
  %138 = load i32, ptr %9, align 4
  %139 = sext i32 %138 to i64
  %140 = icmp slt i64 %137, %139
  br i1 %140, label %141, label %153

141:                                              ; preds = %135
  %142 = load ptr, ptr %7, align 8
  %143 = getelementptr inbounds %struct.PSH_PointRec_, ptr %142, i32 0, i32 4
  %144 = load i32, ptr %143, align 4
  %145 = or i32 %144, 16
  store i32 %145, ptr %143, align 4
  %146 = load ptr, ptr %7, align 8
  %147 = getelementptr inbounds %struct.PSH_PointRec_, ptr %146, i32 0, i32 4
  %148 = load i32, ptr %147, align 4
  %149 = or i32 %148, 1024
  store i32 %149, ptr %147, align 4
  %150 = load ptr, ptr %19, align 8
  %151 = load ptr, ptr %7, align 8
  %152 = getelementptr inbounds %struct.PSH_PointRec_, ptr %151, i32 0, i32 7
  store ptr %150, ptr %152, align 8
  br label %157

153:                                              ; preds = %135, %114
  br label %154

154:                                              ; preds = %153
  %155 = load i32, ptr %18, align 4
  %156 = add i32 %155, 1
  store i32 %156, ptr %18, align 4
  br label %110, !llvm.loop !55

157:                                              ; preds = %141, %110
  br label %321

158:                                              ; preds = %105
  %159 = load ptr, ptr %7, align 8
  %160 = getelementptr inbounds %struct.PSH_PointRec_, ptr %159, i32 0, i32 4
  %161 = load i32, ptr %160, align 4
  %162 = and i32 %161, 64
  %163 = icmp ne i32 %162, 0
  br i1 %163, label %164, label %320

164:                                              ; preds = %158
  %165 = load i32, ptr %10, align 4
  %166 = icmp eq i32 %165, 12
  br i1 %166, label %167, label %168

167:                                              ; preds = %164
  store i32 128, ptr %22, align 4
  store i32 256, ptr %23, align 4
  br label %169

168:                                              ; preds = %164
  store i32 256, ptr %22, align 4
  store i32 128, ptr %23, align 4
  br label %169

169:                                              ; preds = %168, %167
  %170 = load ptr, ptr %7, align 8
  %171 = getelementptr inbounds %struct.PSH_PointRec_, ptr %170, i32 0, i32 4
  %172 = load i32, ptr %171, align 4
  %173 = load i32, ptr %22, align 4
  %174 = and i32 %172, %173
  %175 = icmp ne i32 %174, 0
  br i1 %175, label %176, label %220

176:                                              ; preds = %169
  store i32 0, ptr %21, align 4
  br label %177

177:                                              ; preds = %216, %176
  %178 = load i32, ptr %21, align 4
  %179 = load i32, ptr %12, align 4
  %180 = icmp ult i32 %178, %179
  br i1 %180, label %181, label %219

181:                                              ; preds = %177
  %182 = load ptr, ptr %11, align 8
  %183 = load i32, ptr %21, align 4
  %184 = zext i32 %183 to i64
  %185 = getelementptr inbounds ptr, ptr %182, i64 %184
  %186 = load ptr, ptr %185, align 8
  store ptr %186, ptr %24, align 8
  %187 = load i64, ptr %14, align 8
  %188 = load ptr, ptr %24, align 8
  %189 = getelementptr inbounds %struct.PSH_HintRec_, ptr %188, i32 0, i32 0
  %190 = load i32, ptr %189, align 8
  %191 = sext i32 %190 to i64
  %192 = sub nsw i64 %187, %191
  store i64 %192, ptr %25, align 8
  %193 = load i64, ptr %25, align 8
  %194 = load i32, ptr %9, align 4
  %195 = sext i32 %194 to i64
  %196 = icmp slt i64 %193, %195
  br i1 %196, label %197, label %215

197:                                              ; preds = %181
  %198 = load i64, ptr %25, align 8
  %199 = sub nsw i64 0, %198
  %200 = load i32, ptr %9, align 4
  %201 = sext i32 %200 to i64
  %202 = icmp slt i64 %199, %201
  br i1 %202, label %203, label %215

203:                                              ; preds = %197
  %204 = load ptr, ptr %7, align 8
  %205 = getelementptr inbounds %struct.PSH_PointRec_, ptr %204, i32 0, i32 4
  %206 = load i32, ptr %205, align 4
  %207 = or i32 %206, 512
  store i32 %207, ptr %205, align 4
  %208 = load ptr, ptr %24, align 8
  %209 = load ptr, ptr %7, align 8
  %210 = getelementptr inbounds %struct.PSH_PointRec_, ptr %209, i32 0, i32 7
  store ptr %208, ptr %210, align 8
  %211 = load ptr, ptr %7, align 8
  %212 = getelementptr inbounds %struct.PSH_PointRec_, ptr %211, i32 0, i32 4
  %213 = load i32, ptr %212, align 4
  %214 = or i32 %213, 16
  store i32 %214, ptr %212, align 4
  br label %219

215:                                              ; preds = %197, %181
  br label %216

216:                                              ; preds = %215
  %217 = load i32, ptr %21, align 4
  %218 = add i32 %217, 1
  store i32 %218, ptr %21, align 4
  br label %177, !llvm.loop !56

219:                                              ; preds = %203, %177
  br label %277

220:                                              ; preds = %169
  %221 = load ptr, ptr %7, align 8
  %222 = getelementptr inbounds %struct.PSH_PointRec_, ptr %221, i32 0, i32 4
  %223 = load i32, ptr %222, align 4
  %224 = load i32, ptr %23, align 4
  %225 = and i32 %223, %224
  %226 = icmp ne i32 %225, 0
  br i1 %226, label %227, label %276

227:                                              ; preds = %220
  store i32 0, ptr %21, align 4
  br label %228

228:                                              ; preds = %272, %227
  %229 = load i32, ptr %21, align 4
  %230 = load i32, ptr %12, align 4
  %231 = icmp ult i32 %229, %230
  br i1 %231, label %232, label %275

232:                                              ; preds = %228
  %233 = load ptr, ptr %11, align 8
  %234 = load i32, ptr %21, align 4
  %235 = zext i32 %234 to i64
  %236 = getelementptr inbounds ptr, ptr %233, i64 %235
  %237 = load ptr, ptr %236, align 8
  store ptr %237, ptr %26, align 8
  %238 = load i64, ptr %14, align 8
  %239 = load ptr, ptr %26, align 8
  %240 = getelementptr inbounds %struct.PSH_HintRec_, ptr %239, i32 0, i32 0
  %241 = load i32, ptr %240, align 8
  %242 = sext i32 %241 to i64
  %243 = sub nsw i64 %238, %242
  %244 = load ptr, ptr %26, align 8
  %245 = getelementptr inbounds %struct.PSH_HintRec_, ptr %244, i32 0, i32 1
  %246 = load i32, ptr %245, align 4
  %247 = sext i32 %246 to i64
  %248 = sub nsw i64 %243, %247
  store i64 %248, ptr %27, align 8
  %249 = load i64, ptr %27, align 8
  %250 = load i32, ptr %9, align 4
  %251 = sext i32 %250 to i64
  %252 = icmp slt i64 %249, %251
  br i1 %252, label %253, label %271

253:                                              ; preds = %232
  %254 = load i64, ptr %27, align 8
  %255 = sub nsw i64 0, %254
  %256 = load i32, ptr %9, align 4
  %257 = sext i32 %256 to i64
  %258 = icmp slt i64 %255, %257
  br i1 %258, label %259, label %271

259:                                              ; preds = %253
  %260 = load ptr, ptr %7, align 8
  %261 = getelementptr inbounds %struct.PSH_PointRec_, ptr %260, i32 0, i32 4
  %262 = load i32, ptr %261, align 4
  %263 = or i32 %262, 1024
  store i32 %263, ptr %261, align 4
  %264 = load ptr, ptr %26, align 8
  %265 = load ptr, ptr %7, align 8
  %266 = getelementptr inbounds %struct.PSH_PointRec_, ptr %265, i32 0, i32 7
  store ptr %264, ptr %266, align 8
  %267 = load ptr, ptr %7, align 8
  %268 = getelementptr inbounds %struct.PSH_PointRec_, ptr %267, i32 0, i32 4
  %269 = load i32, ptr %268, align 4
  %270 = or i32 %269, 16
  store i32 %270, ptr %268, align 4
  br label %275

271:                                              ; preds = %253, %232
  br label %272

272:                                              ; preds = %271
  %273 = load i32, ptr %21, align 4
  %274 = add i32 %273, 1
  store i32 %274, ptr %21, align 4
  br label %228, !llvm.loop !57

275:                                              ; preds = %259, %228
  br label %276

276:                                              ; preds = %275, %220
  br label %277

277:                                              ; preds = %276, %219
  %278 = load ptr, ptr %7, align 8
  %279 = getelementptr inbounds %struct.PSH_PointRec_, ptr %278, i32 0, i32 7
  %280 = load ptr, ptr %279, align 8
  %281 = icmp ne ptr %280, null
  br i1 %281, label %319, label %282

282:                                              ; preds = %277
  store i32 0, ptr %21, align 4
  br label %283

283:                                              ; preds = %315, %282
  %284 = load i32, ptr %21, align 4
  %285 = load i32, ptr %12, align 4
  %286 = icmp ult i32 %284, %285
  br i1 %286, label %287, label %318

287:                                              ; preds = %283
  %288 = load ptr, ptr %11, align 8
  %289 = load i32, ptr %21, align 4
  %290 = zext i32 %289 to i64
  %291 = getelementptr inbounds ptr, ptr %288, i64 %290
  %292 = load ptr, ptr %291, align 8
  store ptr %292, ptr %28, align 8
  %293 = load i64, ptr %14, align 8
  %294 = load ptr, ptr %28, align 8
  %295 = getelementptr inbounds %struct.PSH_HintRec_, ptr %294, i32 0, i32 0
  %296 = load i32, ptr %295, align 8
  %297 = sext i32 %296 to i64
  %298 = icmp sge i64 %293, %297
  br i1 %298, label %299, label %314

299:                                              ; preds = %287
  %300 = load i64, ptr %14, align 8
  %301 = load ptr, ptr %28, align 8
  %302 = getelementptr inbounds %struct.PSH_HintRec_, ptr %301, i32 0, i32 0
  %303 = load i32, ptr %302, align 8
  %304 = load ptr, ptr %28, align 8
  %305 = getelementptr inbounds %struct.PSH_HintRec_, ptr %304, i32 0, i32 1
  %306 = load i32, ptr %305, align 4
  %307 = add i32 %303, %306
  %308 = sext i32 %307 to i64
  %309 = icmp sle i64 %300, %308
  br i1 %309, label %310, label %314

310:                                              ; preds = %299
  %311 = load ptr, ptr %28, align 8
  %312 = load ptr, ptr %7, align 8
  %313 = getelementptr inbounds %struct.PSH_PointRec_, ptr %312, i32 0, i32 7
  store ptr %311, ptr %313, align 8
  br label %318

314:                                              ; preds = %299, %287
  br label %315

315:                                              ; preds = %314
  %316 = load i32, ptr %21, align 4
  %317 = add i32 %316, 1
  store i32 %317, ptr %21, align 4
  br label %283, !llvm.loop !58

318:                                              ; preds = %310, %283
  br label %319

319:                                              ; preds = %318, %277
  br label %320

320:                                              ; preds = %319, %158
  br label %321

321:                                              ; preds = %320, %157
  br label %322

322:                                              ; preds = %321, %104
  br label %323

323:                                              ; preds = %322, %47
  %324 = load i32, ptr %8, align 4
  %325 = add i32 %324, -1
  store i32 %325, ptr %8, align 4
  %326 = load ptr, ptr %7, align 8
  %327 = getelementptr inbounds %struct.PSH_PointRec_, ptr %326, i32 1
  store ptr %327, ptr %7, align 8
  br label %35, !llvm.loop !59

328:                                              ; preds = %35
  ret void
}