; Function Attrs: nofree norecurse nosync nounwind memory(readwrite, inaccessiblemem: none) uwtable
define internal fastcc void @psh_hint_table_find_strong_points(i32 %.4.val, ptr nocapture readonly %.16.val, ptr nocapture noundef %0, i32 noundef %1, i32 noundef %2, i32 noundef %3) unnamed_addr #2 {
  %.not30 = icmp eq i32 %1, 0
  br i1 %.not30, label %._crit_edge, label %.lr.ph33

.lr.ph33:                                         ; preds = %4
  %.not37 = icmp eq i32 %.4.val, 0
  %5 = sext i32 %2 to i64
  %invariant.op = sub nsw i64 0, %5
  %6 = icmp eq i32 %3, 12
  %. = select i1 %6, i32 128, i32 256
  %.119 = select i1 %6, i32 256, i32 128
  %wide.trip.count = zext i32 %.4.val to i64
  %wide.trip.count58 = zext i32 %.4.val to i64
  %wide.trip.count63 = zext i32 %.4.val to i64
  %wide.trip.count68 = zext i32 %.4.val to i64
  %wide.trip.count73 = zext i32 %.4.val to i64
  br label %7

7:                                                ; preds = %.lr.ph33, %.loopexit
  %.032 = phi ptr [ %0, %.lr.ph33 ], [ %91, %.loopexit ]
  %.09231 = phi i32 [ %1, %.lr.ph33 ], [ %90, %.loopexit ]
  %8 = getelementptr inbounds i8, ptr %.032, i64 48
  %9 = load i64, ptr %8, align 8
  %10 = getelementptr inbounds i8, ptr %.032, i64 28
  %11 = load i32, ptr %10, align 4
  %12 = and i32 %11, 16
  %.not107 = icmp eq i32 %12, 0
  br i1 %.not107, label %13, label %.loopexit

13:                                               ; preds = %7
  %14 = getelementptr inbounds i8, ptr %.032, i64 32
  %15 = load i32, ptr %14, align 8
  %16 = getelementptr inbounds i8, ptr %.032, i64 36
  %17 = load i32, ptr %16, align 4
  %18 = or i32 %17, %15
  %19 = and i32 %18, %3
  %20 = and i32 %19, 10
  %.not108 = icmp eq i32 %20, 0
  br i1 %.not108, label %32, label %.preheader12

.preheader12:                                     ; preds = %13
  br i1 %.not37, label %.loopexit, label %.lr.ph

21:                                               ; preds = %.lr.ph
  %indvars.iv.next = add nuw nsw i64 %indvars.iv, 1
  %exitcond.not = icmp eq i64 %indvars.iv.next, %wide.trip.count
  br i1 %exitcond.not, label %.loopexit, label %.lr.ph, !llvm.loop !62

.lr.ph:                                           ; preds = %.preheader12, %21
  %indvars.iv = phi i64 [ %indvars.iv.next, %21 ], [ 0, %.preheader12 ]
  %22 = getelementptr inbounds ptr, ptr %.16.val, i64 %indvars.iv
  %23 = load ptr, ptr %22, align 8
  %24 = load i32, ptr %23, align 8
  %25 = sext i32 %24 to i64
  %26 = sub nsw i64 %9, %25
  %27 = icmp slt i64 %26, %5
  %28 = icmp sgt i64 %26, %invariant.op
  %or.cond = select i1 %27, i1 %28, i1 false
  br i1 %or.cond, label %29, label %21

29:                                               ; preds = %.lr.ph
  %30 = or i32 %11, 528
  store i32 %30, ptr %10, align 4
  %31 = getelementptr inbounds i8, ptr %.032, i64 40
  store ptr %23, ptr %31, align 8
  br label %.loopexit

32:                                               ; preds = %13
  %33 = and i32 %19, 5
  %.not109 = icmp eq i32 %33, 0
  br i1 %.not109, label %49, label %.preheader10

.preheader10:                                     ; preds = %32
  br i1 %.not37, label %.loopexit, label %.lr.ph20

34:                                               ; preds = %.lr.ph20
  %indvars.iv.next56 = add nuw nsw i64 %indvars.iv55, 1
  %exitcond59.not = icmp eq i64 %indvars.iv.next56, %wide.trip.count58
  br i1 %exitcond59.not, label %.loopexit, label %.lr.ph20, !llvm.loop !63

.lr.ph20:                                         ; preds = %.preheader10, %34
  %indvars.iv55 = phi i64 [ %indvars.iv.next56, %34 ], [ 0, %.preheader10 ]
  %35 = getelementptr inbounds ptr, ptr %.16.val, i64 %indvars.iv55
  %36 = load ptr, ptr %35, align 8
  %37 = load i32, ptr %36, align 8
  %38 = sext i32 %37 to i64
  %39 = getelementptr inbounds i8, ptr %36, i64 4
  %40 = load i32, ptr %39, align 4
  %41 = sext i32 %40 to i64
  %42 = add nsw i64 %38, %41
  %43 = sub i64 %9, %42
  %44 = icmp slt i64 %43, %5
  %45 = icmp sgt i64 %43, %invariant.op
  %or.cond118 = select i1 %44, i1 %45, i1 false
  br i1 %or.cond118, label %46, label %34

46:                                               ; preds = %.lr.ph20
  %47 = or i32 %11, 1040
  store i32 %47, ptr %10, align 4
  %48 = getelementptr inbounds i8, ptr %.032, i64 40
  store ptr %36, ptr %48, align 8
  br label %.loopexit

49:                                               ; preds = %32
  %50 = and i32 %11, 64
  %.not110 = icmp eq i32 %50, 0
  br i1 %.not110, label %.loopexit, label %51

51:                                               ; preds = %49
  %52 = and i32 %11, %.
  %.not111 = icmp eq i32 %52, 0
  br i1 %.not111, label %61, label %.preheader8

.preheader8:                                      ; preds = %51
  br i1 %.not37, label %.loopexit, label %.lr.ph23

53:                                               ; preds = %.lr.ph23
  %indvars.iv.next61 = add nuw nsw i64 %indvars.iv60, 1
  %exitcond64.not = icmp eq i64 %indvars.iv.next61, %wide.trip.count63
  br i1 %exitcond64.not, label %.loopexit7, label %.lr.ph23, !llvm.loop !64

.lr.ph23:                                         ; preds = %.preheader8, %53
  %indvars.iv60 = phi i64 [ %indvars.iv.next61, %53 ], [ 0, %.preheader8 ]
  %54 = getelementptr inbounds ptr, ptr %.16.val, i64 %indvars.iv60
  %55 = load ptr, ptr %54, align 8
  %56 = load i32, ptr %55, align 8
  %57 = sext i32 %56 to i64
  %58 = sub nsw i64 %9, %57
  %59 = icmp slt i64 %58, %5
  %60 = icmp sgt i64 %58, %invariant.op
  %or.cond121 = select i1 %59, i1 %60, i1 false
  br i1 %or.cond121, label %.loopexit7.sink.split, label %53

61:                                               ; preds = %51
  %62 = and i32 %11, %.119
  %.not112 = icmp eq i32 %62, 0
  %brmerge = select i1 %.not112, i1 true, i1 %.not37
  br i1 %brmerge, label %.loopexit7, label %.lr.ph26

63:                                               ; preds = %.lr.ph26
  %indvars.iv.next66 = add nuw nsw i64 %indvars.iv65, 1
  %exitcond69.not = icmp eq i64 %indvars.iv.next66, %wide.trip.count68
  br i1 %exitcond69.not, label %.loopexit7, label %.lr.ph26, !llvm.loop !65

.lr.ph26:                                         ; preds = %61, %63
  %indvars.iv65 = phi i64 [ %indvars.iv.next66, %63 ], [ 0, %61 ]
  %64 = getelementptr inbounds ptr, ptr %.16.val, i64 %indvars.iv65
  %65 = load ptr, ptr %64, align 8
  %66 = load i32, ptr %65, align 8
  %67 = sext i32 %66 to i64
  %68 = getelementptr inbounds i8, ptr %65, i64 4
  %69 = load i32, ptr %68, align 4
  %70 = sext i32 %69 to i64
  %71 = add nsw i64 %67, %70
  %72 = sub i64 %9, %71
  %73 = icmp slt i64 %72, %5
  %74 = icmp sgt i64 %72, %invariant.op
  %or.cond123 = select i1 %73, i1 %74, i1 false
  br i1 %or.cond123, label %.loopexit7.sink.split, label %63

.loopexit7.sink.split:                            ; preds = %.lr.ph23, %.lr.ph26
  %.lcssa85.sink = phi ptr [ %65, %.lr.ph26 ], [ %55, %.lr.ph23 ]
  %.sink89 = phi i32 [ 1040, %.lr.ph26 ], [ 528, %.lr.ph23 ]
  %75 = getelementptr inbounds i8, ptr %.032, i64 40
  store ptr %.lcssa85.sink, ptr %75, align 8
  %76 = or i32 %11, %.sink89
  store i32 %76, ptr %10, align 4
  br label %.loopexit7

.loopexit7:                                       ; preds = %53, %63, %.loopexit7.sink.split, %61
  %77 = getelementptr inbounds i8, ptr %.032, i64 40
  %78 = load ptr, ptr %77, align 8
  %.not113 = icmp ne ptr %78, null
  %brmerge36 = select i1 %.not113, i1 true, i1 %.not37
  br i1 %brmerge36, label %.loopexit, label %.lr.ph29

.lr.ph29:                                         ; preds = %.loopexit7, %89
  %indvars.iv70 = phi i64 [ %indvars.iv.next71, %89 ], [ 0, %.loopexit7 ]
  %79 = getelementptr inbounds ptr, ptr %.16.val, i64 %indvars.iv70
  %80 = load ptr, ptr %79, align 8
  %81 = load i32, ptr %80, align 8
  %82 = sext i32 %81 to i64
  %.not114 = icmp slt i64 %9, %82
  br i1 %.not114, label %89, label %83

83:                                               ; preds = %.lr.ph29
  %84 = getelementptr inbounds i8, ptr %80, i64 4
  %85 = load i32, ptr %84, align 4
  %86 = add i32 %85, %81
  %87 = sext i32 %86 to i64
  %.not115 = icmp sgt i64 %9, %87
  br i1 %.not115, label %89, label %88

88:                                               ; preds = %83
  store ptr %80, ptr %77, align 8
  br label %.loopexit

89:                                               ; preds = %.lr.ph29, %83
  %indvars.iv.next71 = add nuw nsw i64 %indvars.iv70, 1
  %exitcond74.not = icmp eq i64 %indvars.iv.next71, %wide.trip.count73
  br i1 %exitcond74.not, label %.loopexit, label %.lr.ph29, !llvm.loop !66

.loopexit:                                        ; preds = %21, %34, %89, %.preheader8, %.loopexit7, %.preheader12, %.preheader10, %29, %49, %88, %46, %7
  %90 = add i32 %.09231, -1
  %91 = getelementptr inbounds i8, ptr %.032, i64 72
  %.not = icmp eq i32 %90, 0
  br i1 %.not, label %._crit_edge, label %7, !llvm.loop !67

._crit_edge:                                      ; preds = %.loopexit, %4
  ret void
}